; Function Attrs: mustprogress uwtable
define void @_ZN3zmq8reaper_t9out_eventEv(ptr nocapture nonnull readnone align 8 %this) unnamed_addr #0 align 2 {
entry:
  %0 = load ptr, ptr @stderr, align 8
  %call = tail call i32 (ptr, ptr, ...) @fprintf(ptr noundef %0, ptr noundef nonnull @.str.3, ptr noundef nonnull @.str.7, ptr noundef nonnull @.str.1, i32 noundef 83) #13
  %1 = load ptr, ptr @stderr, align 8
  %call2 = tail call i32 @fflush(ptr noundef %1)
  tail call void @_ZN3zmq9zmq_abortEPKc(ptr noundef nonnull @.str.7)
  ret void
}